target datalayout = "e-m:e-p270:32:32-p271:32:32-p272:64:64-i64:64-i128:128-f80:128-n8:16:32:64-S128"
target triple = "x86_64-pc-linux-gnu"

@.str.19 = private unnamed_addr constant [5 x i8] c"%s%s\00", align 1
@.str.20 = private unnamed_addr constant [7 x i8] c"%s%c%s\00", align 1
@.str.28 = private unnamed_addr constant [14 x i8] c"extension_dir\00", align 1
@.str.29 = private unnamed_addr constant [8 x i8] c"%s%s.so\00", align 1
@.str.30 = private unnamed_addr constant [10 x i8] c"%s%c%s.so\00", align 1
@.str.31 = private unnamed_addr constant [61 x i8] c"Failed loading Zend extension '%s' (tried: %s (%s), %s (%s))\00", align 1

; Function Attrs: nounwind uwtable
define internal void @php_load_zend_extension_cb(ptr noundef %0) #0 {
  %2 = alloca ptr, align 8
  %3 = alloca ptr, align 8
  %4 = alloca i64, align 8
  %5 = alloca ptr, align 8
  %6 = alloca ptr, align 8
  %7 = alloca ptr, align 8
  %8 = alloca i32, align 4
  %9 = alloca ptr, align 8
  %10 = alloca ptr, align 8
  %11 = alloca ptr, align 8
  %12 = alloca i32, align 4
  store ptr %0, ptr %2, align 8, !tbaa !99
  call void @llvm.lifetime.start.p0(i64 8, ptr %3) #14
  %13 = load ptr, ptr %2, align 8, !tbaa !99
  %14 = load ptr, ptr %13, align 8, !tbaa !64
  store ptr %14, ptr %3, align 8, !tbaa !64
  call void @llvm.lifetime.start.p0(i64 8, ptr %4) #14
  %15 = load ptr, ptr %3, align 8, !tbaa !64
  %16 = call i64 @strlen(ptr noundef %15) #15
  store i64 %16, ptr %4, align 8, !tbaa !71
  %17 = load ptr, ptr %3, align 8, !tbaa !64
  %18 = getelementptr inbounds i8, ptr %17, i64 0
  %19 = load i8, ptr %18, align 1, !tbaa !51
  %20 = sext i8 %19 to i32
  %21 = icmp eq i32 %20, 47
  br i1 %21, label %22, label %25

22:                                               ; preds = %1
  %23 = load ptr, ptr %3, align 8, !tbaa !64
  %24 = call i32 @zend_load_extension(ptr noundef %23)
  br label %102

25:                                               ; preds = %1
  call void @llvm.lifetime.start.p0(i64 8, ptr %5) #14
  call void @llvm.lifetime.start.p0(i64 8, ptr %6) #14
  call void @llvm.lifetime.start.p0(i64 8, ptr %7) #14
  %26 = call ptr @zend_ini_string_ex(ptr noundef @.str.28, i64 noundef 13, i32 noundef 0, ptr noundef null)
  store ptr %26, ptr %7, align 8, !tbaa !64
  call void @llvm.lifetime.start.p0(i64 4, ptr %8) #14
  store i32 0, ptr %8, align 4, !tbaa !20
  call void @llvm.lifetime.start.p0(i64 8, ptr %9) #14
  call void @llvm.lifetime.start.p0(i64 8, ptr %10) #14
  %27 = load ptr, ptr %7, align 8, !tbaa !64
  %28 = icmp ne ptr %27, null
  br i1 %28, label %29, label %45

29:                                               ; preds = %25
  %30 = load ptr, ptr %7, align 8, !tbaa !64
  %31 = getelementptr inbounds i8, ptr %30, i64 0
  %32 = load i8, ptr %31, align 1, !tbaa !51
  %33 = sext i8 %32 to i32
  %34 = icmp ne i32 %33, 0
  br i1 %34, label %35, label %45

35:                                               ; preds = %29
  %36 = load ptr, ptr %7, align 8, !tbaa !64
  %37 = load ptr, ptr %7, align 8, !tbaa !64
  %38 = call i64 @strlen(ptr noundef %37) #15
  %39 = sub i64 %38, 1
  %40 = getelementptr inbounds nuw i8, ptr %36, i64 %39
  %41 = load i8, ptr %40, align 1, !tbaa !51
  %42 = sext i8 %41 to i32
  %43 = icmp eq i32 %42, 47
  %44 = zext i1 %43 to i32
  store i32 %44, ptr %8, align 4, !tbaa !20
  br label %45

45:                                               ; preds = %35, %29, %25
  %46 = load i32, ptr %8, align 4, !tbaa !20
  %47 = icmp ne i32 %46, 0
  br i1 %47, label %48, label %52

48:                                               ; preds = %45
  %49 = load ptr, ptr %7, align 8, !tbaa !64
  %50 = load ptr, ptr %3, align 8, !tbaa !64
  %51 = call i64 (ptr, i64, ptr, ...) @zend_spprintf(ptr noundef %6, i64 noundef 0, ptr noundef @.str.19, ptr noundef %49, ptr noundef %50)
  br label %56

52:                                               ; preds = %45
  %53 = load ptr, ptr %7, align 8, !tbaa !64
  %54 = load ptr, ptr %3, align 8, !tbaa !64
  %55 = call i64 (ptr, i64, ptr, ...) @zend_spprintf(ptr noundef %6, i64 noundef 0, ptr noundef @.str.20, ptr noundef %53, i32 noundef 47, ptr noundef %54)
  br label %56

56:                                               ; preds = %52, %48
  %57 = load ptr, ptr %6, align 8, !tbaa !64
  %58 = call ptr @php_load_shlib(ptr noundef %57, ptr noundef %9)
  store ptr %58, ptr %5, align 8, !tbaa !99
  %59 = load ptr, ptr %5, align 8, !tbaa !99
  %60 = icmp ne ptr %59, null
  br i1 %60, label %94, label %61

61:                                               ; preds = %56
  call void @llvm.lifetime.start.p0(i64 8, ptr %11) #14
  %62 = load ptr, ptr %6, align 8, !tbaa !64
  store ptr %62, ptr %11, align 8, !tbaa !64
  %63 = load i32, ptr %8, align 4, !tbaa !20
  %64 = icmp ne i32 %63, 0
  br i1 %64, label %65, label %69

65:                                               ; preds = %61
  %66 = load ptr, ptr %7, align 8, !tbaa !64
  %67 = load ptr, ptr %3, align 8, !tbaa !64
  %68 = call i64 (ptr, i64, ptr, ...) @zend_spprintf(ptr noundef %6, i64 noundef 0, ptr noundef @.str.29, ptr noundef %66, ptr noundef %67)
  br label %73

69:                                               ; preds = %61
  %70 = load ptr, ptr %7, align 8, !tbaa !64
  %71 = load ptr, ptr %3, align 8, !tbaa !64
  %72 = call i64 (ptr, i64, ptr, ...) @zend_spprintf(ptr noundef %6, i64 noundef 0, ptr noundef @.str.30, ptr noundef %70, i32 noundef 47, ptr noundef %71)
  br label %73

73:                                               ; preds = %69, %65
  %74 = load ptr, ptr %6, align 8, !tbaa !64
  %75 = call ptr @php_load_shlib(ptr noundef %74, ptr noundef %10)
  store ptr %75, ptr %5, align 8, !tbaa !99
  %76 = load ptr, ptr %5, align 8, !tbaa !99
  %77 = icmp ne ptr %76, null
  br i1 %77, label %88, label %78

78:                                               ; preds = %73
  %79 = load ptr, ptr %3, align 8, !tbaa !64
  %80 = load ptr, ptr %11, align 8, !tbaa !64
  %81 = load ptr, ptr %9, align 8, !tbaa !64
  %82 = load ptr, ptr %6, align 8, !tbaa !64
  %83 = load ptr, ptr %10, align 8, !tbaa !64
  call void (i32, ptr, ...) @zend_error(i32 noundef 32, ptr noundef @.str.31, ptr noundef %79, ptr noundef %80, ptr noundef %81, ptr noundef %82, ptr noundef %83)
  %84 = load ptr, ptr %11, align 8, !tbaa !64
  call void @_efree(ptr noundef %84)
  %85 = load ptr, ptr %9, align 8, !tbaa !64
  call void @_efree(ptr noundef %85)
  %86 = load ptr, ptr %6, align 8, !tbaa !64
  call void @_efree(ptr noundef %86)
  %87 = load ptr, ptr %10, align 8, !tbaa !64
  call void @_efree(ptr noundef %87)
  store i32 1, ptr %12, align 4
  br label %91

88:                                               ; preds = %73
  %89 = load ptr, ptr %11, align 8, !tbaa !64
  call void @_efree(ptr noundef %89)
  %90 = load ptr, ptr %9, align 8, !tbaa !64
  call void @_efree(ptr noundef %90)
  store i32 0, ptr %12, align 4
  br label %91

91:                                               ; preds = %88, %78
  call void @llvm.lifetime.end.p0(i64 8, ptr %11) #14
  %92 = load i32, ptr %12, align 4
  switch i32 %92, label %99 [
    i32 0, label %93
  ]

93:                                               ; preds = %91
  br label %94

94:                                               ; preds = %93, %56
  %95 = load ptr, ptr %5, align 8, !tbaa !99
  %96 = load ptr, ptr %6, align 8, !tbaa !64
  %97 = call i32 @zend_load_extension_handle(ptr noundef %95, ptr noundef %96)
  %98 = load ptr, ptr %6, align 8, !tbaa !64
  call void @_efree(ptr noundef %98)
  store i32 0, ptr %12, align 4
  br label %99

99:                                               ; preds = %94, %91
  call void @llvm.lifetime.end.p0(i64 8, ptr %10) #14
  call void @llvm.lifetime.end.p0(i64 8, ptr %9) #14
  call void @llvm.lifetime.end.p0(i64 4, ptr %8) #14
  call void @llvm.lifetime.end.p0(i64 8, ptr %7) #14
  call void @llvm.lifetime.end.p0(i64 8, ptr %6) #14
  call void @llvm.lifetime.end.p0(i64 8, ptr %5) #14
  %100 = load i32, ptr %12, align 4
  switch i32 %100, label %103 [
    i32 0, label %101
  ]

101:                                              ; preds = %99
  br label %102

102:                                              ; preds = %101, %22
  store i32 0, ptr %12, align 4
  br label %103

103:                                              ; preds = %102, %99
  call void @llvm.lifetime.end.p0(i64 8, ptr %4) #14
  call void @llvm.lifetime.end.p0(i64 8, ptr %3) #14
  %104 = load i32, ptr %12, align 4
  switch i32 %104, label %106 [
    i32 0, label %105
    i32 1, label %105
  ]

105:                                              ; preds = %103, %103
  ret void

106:                                              ; preds = %103
  unreachable
}