; Function Attrs: nounwind uwtable
define internal void @php_load_zend_extension_cb(ptr noundef readonly captures(none) %0) #0 {
  %2 = alloca ptr, align 8
  %3 = alloca ptr, align 8
  %4 = alloca ptr, align 8
  %5 = load ptr, ptr %0, align 8, !tbaa !78
  %6 = load i8, ptr %5, align 1, !tbaa !47
  %7 = icmp eq i8 %6, 47
  br i1 %7, label %8, label %10

8:                                                ; preds = %1
  %9 = tail call i32 @zend_load_extension(ptr noundef nonnull %5) #16
  br label %46

10:                                               ; preds = %1
  call void @llvm.lifetime.start.p0(i64 8, ptr nonnull %2) #16
  %11 = tail call ptr @zend_ini_string_ex(ptr noundef nonnull @.str.28, i64 noundef 13, i32 noundef 0, ptr noundef null) #16
  call void @llvm.lifetime.start.p0(i64 8, ptr nonnull %3) #16
  call void @llvm.lifetime.start.p0(i64 8, ptr nonnull %4) #16
  %.not = icmp eq ptr %11, null
  br i1 %.not, label %.thread, label %12

12:                                               ; preds = %10
  %13 = load i8, ptr %11, align 1, !tbaa !47
  %.not31 = icmp eq i8 %13, 0
  br i1 %.not31, label %.thread, label %14

14:                                               ; preds = %12
  %15 = tail call i64 @strlen(ptr noundef nonnull dereferenceable(1) %11) #17
  %16 = getelementptr i8, ptr %11, i64 %15
  %17 = getelementptr i8, ptr %16, i64 -1
  %18 = load i8, ptr %17, align 1, !tbaa !47
  %.not39 = icmp eq i8 %18, 47
  br i1 %.not39, label %19, label %.thread

19:                                               ; preds = %14
  %20 = call i64 (ptr, i64, ptr, ...) @zend_spprintf(ptr noundef nonnull %2, i64 noundef 0, ptr noundef nonnull @.str.19, ptr noundef nonnull %11, ptr noundef nonnull %5) #16
  br label %22

.thread:                                          ; preds = %10, %12, %14
  %21 = call i64 (ptr, i64, ptr, ...) @zend_spprintf(ptr noundef nonnull %2, i64 noundef 0, ptr noundef nonnull @.str.20, ptr noundef %11, i32 noundef 47, ptr noundef nonnull %5) #16
  br label %22

22:                                               ; preds = %.thread, %19
  %.02836 = phi i1 [ true, %.thread ], [ false, %19 ]
  %23 = load ptr, ptr %2, align 8, !tbaa !78
  %24 = call ptr @php_load_shlib(ptr noundef %23, ptr noundef nonnull %3) #16
  %.not33 = icmp eq ptr %24, null
  br i1 %.not33, label %25, label %.critedge

25:                                               ; preds = %22
  %26 = load ptr, ptr %2, align 8, !tbaa !78
  br i1 %.02836, label %29, label %27

27:                                               ; preds = %25
  %28 = call i64 (ptr, i64, ptr, ...) @zend_spprintf(ptr noundef nonnull %2, i64 noundef 0, ptr noundef nonnull @.str.29, ptr noundef %11, ptr noundef nonnull %5) #16
  br label %31

29:                                               ; preds = %25
  %30 = call i64 (ptr, i64, ptr, ...) @zend_spprintf(ptr noundef nonnull %2, i64 noundef 0, ptr noundef nonnull @.str.30, ptr noundef %11, i32 noundef 47, ptr noundef nonnull %5) #16
  br label %31

31:                                               ; preds = %29, %27
  %32 = load ptr, ptr %2, align 8, !tbaa !78
  %33 = call ptr @php_load_shlib(ptr noundef %32, ptr noundef nonnull %4) #16
  %.not34.not = icmp eq ptr %33, null
  br i1 %.not34.not, label %39, label %34

34:                                               ; preds = %31
  call void @_efree(ptr noundef %26) #16
  %35 = load ptr, ptr %3, align 8, !tbaa !78
  call void @_efree(ptr noundef %35) #16
  br label %.critedge

.critedge:                                        ; preds = %34, %22
  %.027 = phi ptr [ %24, %22 ], [ %33, %34 ]
  %36 = load ptr, ptr %2, align 8, !tbaa !78
  %37 = call i32 @zend_load_extension_handle(ptr noundef nonnull %.027, ptr noundef %36) #16
  %38 = load ptr, ptr %2, align 8, !tbaa !78
  call void @_efree(ptr noundef %38) #16
  call void @llvm.lifetime.end.p0(i64 8, ptr nonnull %4) #16
  call void @llvm.lifetime.end.p0(i64 8, ptr nonnull %3) #16
  call void @llvm.lifetime.end.p0(i64 8, ptr nonnull %2) #16
  br label %46

39:                                               ; preds = %31
  %40 = load ptr, ptr %3, align 8, !tbaa !78
  %41 = load ptr, ptr %2, align 8, !tbaa !78
  %42 = load ptr, ptr %4, align 8, !tbaa !78
  call void (i32, ptr, ...) @zend_error(i32 noundef 32, ptr noundef nonnull @.str.31, ptr noundef nonnull %5, ptr noundef %26, ptr noundef %40, ptr noundef %41, ptr noundef %42) #16
  call void @_efree(ptr noundef %26) #16
  %43 = load ptr, ptr %3, align 8, !tbaa !78
  call void @_efree(ptr noundef %43) #16
  %44 = load ptr, ptr %2, align 8, !tbaa !78
  call void @_efree(ptr noundef %44) #16
  %45 = load ptr, ptr %4, align 8, !tbaa !78
  call void @_efree(ptr noundef %45) #16
  call void @llvm.lifetime.end.p0(i64 8, ptr nonnull %4) #16
  call void @llvm.lifetime.end.p0(i64 8, ptr nonnull %3) #16
  call void @llvm.lifetime.end.p0(i64 8, ptr nonnull %2) #16
  br label %46

46:                                               ; preds = %8, %.critedge, %39
  ret void
}